target datalayout = "e-m:e-p270:32:32-p271:32:32-p272:64:64-i64:64-i128:128-f80:128-n8:16:32:64-S128"
target triple = "x86_64-pc-linux-gnu"

%struct.DrawBoxContext = type { ptr, i32, i32, i32, i32, i32, ptr, [4 x i8], [4 x i8], [4 x i8], i32, i32, i32, ptr, ptr, ptr, ptr, ptr, ptr, i32, i32, i32, i32, ptr }

; Function Attrs: alwaysinline nounwind willreturn memory(read) uwtable
define internal i32 @pixel_belongs_to_grid(ptr noundef %0, i32 noundef %1, i32 noundef %2) #5 {
  %4 = alloca ptr, align 8
  %5 = alloca i32, align 4
  %6 = alloca i32, align 4
  %7 = alloca i32, align 4
  %8 = alloca i32, align 4
  store ptr %0, ptr %4, align 8, !tbaa !22
  store i32 %1, ptr %5, align 4, !tbaa !31
  store i32 %2, ptr %6, align 4, !tbaa !31
  call void @llvm.lifetime.start.p0(i64 4, ptr %7) #10
  call void @llvm.lifetime.start.p0(i64 4, ptr %8) #10
  %9 = load ptr, ptr %4, align 8, !tbaa !22
  %10 = getelementptr inbounds nuw %struct.DrawBoxContext, ptr %9, i32 0, i32 1
  %11 = load i32, ptr %10, align 8, !tbaa !35
  %12 = load i32, ptr %5, align 4, !tbaa !31
  %13 = sub nsw i32 %12, %11
  store i32 %13, ptr %5, align 4, !tbaa !31
  %14 = load ptr, ptr %4, align 8, !tbaa !22
  %15 = getelementptr inbounds nuw %struct.DrawBoxContext, ptr %14, i32 0, i32 2
  %16 = load i32, ptr %15, align 4, !tbaa !36
  %17 = load i32, ptr %6, align 4, !tbaa !31
  %18 = sub nsw i32 %17, %16
  store i32 %18, ptr %6, align 4, !tbaa !31
  %19 = load i32, ptr %5, align 4, !tbaa !31
  %20 = load ptr, ptr %4, align 8, !tbaa !22
  %21 = getelementptr inbounds nuw %struct.DrawBoxContext, ptr %20, i32 0, i32 3
  %22 = load i32, ptr %21, align 8, !tbaa !37
  %23 = srem i32 %19, %22
  store i32 %23, ptr %7, align 4, !tbaa !31
  %24 = load i32, ptr %6, align 4, !tbaa !31
  %25 = load ptr, ptr %4, align 8, !tbaa !22
  %26 = getelementptr inbounds nuw %struct.DrawBoxContext, ptr %25, i32 0, i32 4
  %27 = load i32, ptr %26, align 4, !tbaa !38
  %28 = srem i32 %24, %27
  store i32 %28, ptr %8, align 4, !tbaa !31
  %29 = load i32, ptr %7, align 4, !tbaa !31
  %30 = icmp slt i32 %29, 0
  br i1 %30, label %31, label %37

31:                                               ; preds = %3
  %32 = load ptr, ptr %4, align 8, !tbaa !22
  %33 = getelementptr inbounds nuw %struct.DrawBoxContext, ptr %32, i32 0, i32 3
  %34 = load i32, ptr %33, align 8, !tbaa !37
  %35 = load i32, ptr %7, align 4, !tbaa !31
  %36 = add nsw i32 %35, %34
  store i32 %36, ptr %7, align 4, !tbaa !31
  br label %37

37:                                               ; preds = %31, %3
  %38 = load i32, ptr %8, align 4, !tbaa !31
  %39 = icmp slt i32 %38, 0
  br i1 %39, label %40, label %46

40:                                               ; preds = %37
  %41 = load ptr, ptr %4, align 8, !tbaa !22
  %42 = getelementptr inbounds nuw %struct.DrawBoxContext, ptr %41, i32 0, i32 4
  %43 = load i32, ptr %42, align 4, !tbaa !38
  %44 = load i32, ptr %8, align 4, !tbaa !31
  %45 = add nsw i32 %44, %43
  store i32 %45, ptr %8, align 4, !tbaa !31
  br label %46

46:                                               ; preds = %40, %37
  %47 = load i32, ptr %7, align 4, !tbaa !31
  %48 = load ptr, ptr %4, align 8, !tbaa !22
  %49 = getelementptr inbounds nuw %struct.DrawBoxContext, ptr %48, i32 0, i32 5
  %50 = load i32, ptr %49, align 8, !tbaa !39
  %51 = icmp slt i32 %47, %50
  br i1 %51, label %58, label %52

52:                                               ; preds = %46
  %53 = load i32, ptr %8, align 4, !tbaa !31
  %54 = load ptr, ptr %4, align 8, !tbaa !22
  %55 = getelementptr inbounds nuw %struct.DrawBoxContext, ptr %54, i32 0, i32 5
  %56 = load i32, ptr %55, align 8, !tbaa !39
  %57 = icmp slt i32 %53, %56
  br label %58

58:                                               ; preds = %52, %46
  %59 = phi i1 [ true, %46 ], [ %57, %52 ]
  %60 = zext i1 %59 to i32
  call void @llvm.lifetime.end.p0(i64 4, ptr %8) #10
  call void @llvm.lifetime.end.p0(i64 4, ptr %7) #10
  ret i32 %60
}