; Function Attrs: alwaysinline mustprogress nofree norecurse nosync nounwind willreturn memory(argmem: read) uwtable
define internal range(i32 0, 2) i32 @pixel_belongs_to_grid(ptr noundef readonly captures(none) %0, i32 noundef %1, i32 noundef %2) #4 {
  %4 = getelementptr inbounds nuw i8, ptr %0, i64 8
  %5 = load i32, ptr %4, align 8, !tbaa !29
  %6 = sub nsw i32 %1, %5
  %7 = getelementptr inbounds nuw i8, ptr %0, i64 12
  %8 = load i32, ptr %7, align 4, !tbaa !30
  %9 = sub nsw i32 %2, %8
  %10 = getelementptr inbounds nuw i8, ptr %0, i64 16
  %11 = load i32, ptr %10, align 8, !tbaa !31
  %12 = srem i32 %6, %11
  %13 = getelementptr inbounds nuw i8, ptr %0, i64 20
  %14 = load i32, ptr %13, align 4, !tbaa !32
  %15 = srem i32 %9, %14
  %16 = icmp slt i32 %12, 0
  %17 = select i1 %16, i32 %11, i32 0
  %spec.select = add nsw i32 %17, %12
  %18 = icmp slt i32 %15, 0
  %19 = select i1 %18, i32 %14, i32 0
  %spec.select22 = add nsw i32 %19, %15
  %20 = getelementptr inbounds nuw i8, ptr %0, i64 24
  %21 = load i32, ptr %20, align 8, !tbaa !33
  %22 = icmp slt i32 %spec.select, %21
  %23 = icmp slt i32 %spec.select22, %21
  %narrow = select i1 %22, i1 true, i1 %23
  %24 = zext i1 %narrow to i32
  ret i32 %24
}